#include <math.h>
#include <stdio.h>
#include <stdlib.h>
#include <string.h>
#include <iostream>
using namespace std;

/*
 * homework1.cpp
 * ??:???
 * ????: 2012-11-2
 * ??:??????????????????????????????????? 
 *     ????????????????????????????
 */
int main(){
	int n,k,num,i,p=0;//????
	cin>>n;//???????
	int a[n];
	for(i=0;i<n;i++)
		{
		cin>>num;
		a[i]=num;//????
		}
	cin>>k;//???????
	for(i=0;i<n;i++){
		if(a[i]!=k){
			if(p==1)cout<<" ";
			cout<<a[i];
			p=1;//????
		}
	}
	return 0;//????
}

